target datalayout = "e-m:e-p270:32:32-p271:32:32-p272:64:64-i64:64-i128:128-f80:128-n8:16:32:64-S128"
target triple = "x86_64-pc-linux-gnu"

%struct.AVRational = type { i32, i32 }
%struct.AVCodecContext = type { ptr, i32, i32, ptr, i32, i32, ptr, ptr, ptr, i64, i32, i32, ptr, i32, %struct.AVRational, %struct.AVRational, %struct.AVRational, i32, i32, i32, i32, i32, %struct.AVRational, i32, i32, i32, i32, i32, i32, i32, i32, i32, i32, i32, ptr, ptr, i32, float, float, float, float, float, float, float, float, float, i32, i32, i32, i32, i32, i32, i32, i32, i32, i32, i32, i32, ptr, ptr, ptr, i32, i32, i32, i32, i32, i32, i32, i32, i32, i32, %struct.AVChannelLayout, i32, i32, i32, i32, i32, i32, i32, i32, ptr, i32, i32, i32, float, float, i32, i32, i32, i32, i32, ptr, i64, i64, float, float, i32, i32, ptr, ptr, i32, i32, i32, i32, i32, ptr, ptr, ptr, ptr, i32, i32, [8 x i64], i32, i32, i32, i32, i32, i32, i32, ptr, ptr, i32, i32, i32, i32, i32, i32, i32, i32, i32, i32, ptr, ptr, i32, i32, ptr, ptr, ptr, ptr, i32, i32, i64, i32, i32, i64, ptr, i64, ptr, i32, ptr, i32 }
%struct.AVChannelLayout = type { i32, i32, %union.anon, ptr }
%union.anon = type { i64 }
%struct.AVCodecInternal = type { i32, i32, i32, ptr, ptr, ptr, ptr, ptr, ptr, ptr, i32, ptr, ptr, ptr, i32, i32, ptr, i32, ptr, ptr, i32, i32 }

; Function Attrs: nounwind uwtable
define void @ff_encode_flush_buffers(ptr noundef %0) #0 {
  %2 = alloca ptr, align 8
  %3 = alloca ptr, align 8
  store ptr %0, ptr %2, align 8, !tbaa !4
  call void @llvm.lifetime.start.p0(i64 8, ptr %3) #10
  %4 = load ptr, ptr %2, align 8, !tbaa !4
  %5 = getelementptr inbounds nuw %struct.AVCodecContext, ptr %4, i32 0, i32 7
  %6 = load ptr, ptr %5, align 8, !tbaa !20
  store ptr %6, ptr %3, align 8, !tbaa !59
  %7 = load ptr, ptr %3, align 8, !tbaa !59
  %8 = getelementptr inbounds nuw %struct.AVCodecInternal, ptr %7, i32 0, i32 12
  %9 = load ptr, ptr %8, align 8, !tbaa !119
  %10 = icmp ne ptr %9, null
  br i1 %10, label %11, label %15

11:                                               ; preds = %1
  %12 = load ptr, ptr %3, align 8, !tbaa !59
  %13 = getelementptr inbounds nuw %struct.AVCodecInternal, ptr %12, i32 0, i32 12
  %14 = load ptr, ptr %13, align 8, !tbaa !119
  call void @av_frame_unref(ptr noundef %14)
  br label %15

15:                                               ; preds = %11, %1
  %16 = load ptr, ptr %3, align 8, !tbaa !59
  %17 = getelementptr inbounds nuw %struct.AVCodecInternal, ptr %16, i32 0, i32 13
  %18 = load ptr, ptr %17, align 8, !tbaa !120
  %19 = icmp ne ptr %18, null
  br i1 %19, label %20, label %24

20:                                               ; preds = %15
  %21 = load ptr, ptr %3, align 8, !tbaa !59
  %22 = getelementptr inbounds nuw %struct.AVCodecInternal, ptr %21, i32 0, i32 13
  %23 = load ptr, ptr %22, align 8, !tbaa !120
  call void @av_frame_unref(ptr noundef %23)
  br label %24

24:                                               ; preds = %20, %15
  call void @llvm.lifetime.end.p0(i64 8, ptr %3) #10
  ret void
}