; Function Attrs: nounwind uwtable
define void @ff_encode_flush_buffers(ptr noundef readonly captures(none) %0) local_unnamed_addr #0 {
  %2 = getelementptr inbounds nuw i8, ptr %0, i64 40
  %3 = load ptr, ptr %2, align 8, !tbaa !15
  %4 = getelementptr inbounds nuw i8, ptr %3, i64 88
  %5 = load ptr, ptr %4, align 8, !tbaa !92
  %.not = icmp eq ptr %5, null
  br i1 %.not, label %7, label %6

6:                                                ; preds = %1
  tail call void @av_frame_unref(ptr noundef nonnull %5) #8
  br label %7

7:                                                ; preds = %6, %1
  %8 = getelementptr inbounds nuw i8, ptr %3, i64 96
  %9 = load ptr, ptr %8, align 8, !tbaa !132
  %.not6 = icmp eq ptr %9, null
  br i1 %.not6, label %11, label %10

10:                                               ; preds = %7
  tail call void @av_frame_unref(ptr noundef nonnull %9) #8
  br label %11

11:                                               ; preds = %10, %7
  ret void
}